; ModuleID = 'source-C-CXX/3/799.cpp'
source_filename = "source-C-CXX/3/799.cpp"
target datalayout = "e-m:e-p270:32:32-p271:32:32-p272:64:64-i64:64-f80:128-n8:16:32:64-S128"
target triple = "x86_64-pc-linux-gnu"

%"class.std::ios_base::Init" = type { i8 }
%"class.std::basic_ostream" = type { i32 (...)**, %"class.std::basic_ios" }
%"class.std::basic_ios" = type { %"class.std::ios_base", %"class.std::basic_ostream"*, i8, i8, %"class.std::basic_streambuf"*, %"class.std::ctype"*, %"class.std::num_put"*, %"class.std::num_get"* }
%"class.std::ios_base" = type { i32 (...)**, i64, i64, i32, i32, i32, %"struct.std::ios_base::_Callback_list"*, %"struct.std::ios_base::_Words", [8 x %"struct.std::ios_base::_Words"], i32, %"struct.std::ios_base::_Words"*, %"class.std::locale" }
%"struct.std::ios_base::_Callback_list" = type { %"struct.std::ios_base::_Callback_list"*, void (i32, %"class.std::ios_base"*, i32)*, i32, i32 }
%"struct.std::ios_base::_Words" = type { i8*, i64 }
%"class.std::locale" = type { %"class.std::locale::_Impl"* }
%"class.std::locale::_Impl" = type { i32, %"class.std::locale::facet"**, i64, %"class.std::locale::facet"**, i8** }
%"class.std::locale::facet" = type <{ i32 (...)**, i32, [4 x i8] }>
%"class.std::basic_streambuf" = type { i32 (...)**, i8*, i8*, i8*, i8*, i8*, i8*, %"class.std::locale" }
%"class.std::ctype" = type <{ %"class.std::locale::facet.base", [4 x i8], %struct.__locale_struct*, i8, [7 x i8], i32*, i32*, i16*, i8, [256 x i8], [256 x i8], i8, [6 x i8] }>
%"class.std::locale::facet.base" = type <{ i32 (...)**, i32 }>
%struct.__locale_struct = type { [13 x %struct.__locale_data*], i16*, i32*, i32*, [13 x i8*] }
%struct.__locale_data = type opaque
%"class.std::num_put" = type { %"class.std::locale::facet.base", [4 x i8] }
%"class.std::num_get" = type { %"class.std::locale::facet.base", [4 x i8] }
%"class.std::basic_istream" = type { i32 (...)**, i64, %"class.std::basic_ios" }

@_ZStL8__ioinit = internal global %"class.std::ios_base::Init" zeroinitializer, align 1
@__dso_handle = external hidden global i8
@row = dso_local global i32 0, align 4
@col = dso_local global i32 0, align 4
@Mat = dso_local global [111 x [111 x i32]] zeroinitializer, align 16
@_ZSt4cout = external global %"class.std::basic_ostream", align 8
@_ZSt3cin = external global %"class.std::basic_istream", align 8
@llvm.global_ctors = appending global [1 x { i32, void ()*, i8* }] [{ i32, void ()*, i8* } { i32 65535, void ()* @_GLOBAL__sub_I_799.cpp, i8* null }]

declare void @_ZNSt8ios_base4InitC1Ev(%"class.std::ios_base::Init"* nonnull align 1 dereferenceable(1)) unnamed_addr #0

; Function Attrs: nounwind
declare void @_ZNSt8ios_base4InitD1Ev(%"class.std::ios_base::Init"* nonnull align 1 dereferenceable(1)) unnamed_addr #1

; Function Attrs: nofree nounwind
declare i32 @__cxa_atexit(void (i8*)*, i8*, i8*) local_unnamed_addr #2

; Function Attrs: mustprogress sspstrong uwtable
define dso_local void @_Z3Outii(i32 %0, i32 %1) local_unnamed_addr #3 {
  %3 = sext i32 %0 to i64
  %4 = sext i32 %1 to i64
  %5 = getelementptr inbounds [111 x [111 x i32]], [111 x [111 x i32]]* @Mat, i64 0, i64 %3, i64 %4
  %6 = load i32, i32* %5, align 4, !tbaa !5
  %7 = tail call nonnull align 8 dereferenceable(8) %"class.std::basic_ostream"* @_ZNSolsEi(%"class.std::basic_ostream"* nonnull align 8 dereferenceable(8) @_ZSt4cout, i32 %6)
  %8 = bitcast %"class.std::basic_ostream"* %7 to i8**
  %9 = load i8*, i8** %8, align 8, !tbaa !9
  %10 = getelementptr i8, i8* %9, i64 -24
  %11 = bitcast i8* %10 to i64*
  %12 = load i64, i64* %11, align 8
  %13 = bitcast %"class.std::basic_ostream"* %7 to i8*
  %14 = add nsw i64 %12, 240
  %15 = getelementptr inbounds i8, i8* %13, i64 %14
  %16 = bitcast i8* %15 to %"class.std::ctype"**
  %17 = load %"class.std::ctype"*, %"class.std::ctype"** %16, align 8, !tbaa !11
  %18 = icmp eq %"class.std::ctype"* %17, null
  br i1 %18, label %19, label %20

19:                                               ; preds = %47, %2
  tail call void @_ZSt16__throw_bad_castv() #7
  unreachable

20:                                               ; preds = %2, %47
  %21 = phi i64 [ %48, %47 ], [ %3, %2 ]
  %22 = phi i64 [ %49, %47 ], [ %4, %2 ]
  %23 = phi %"class.std::ctype"* [ %62, %47 ], [ %17, %2 ]
  %24 = phi %"class.std::basic_ostream"* [ %52, %47 ], [ %7, %2 ]
  %25 = getelementptr inbounds %"class.std::ctype", %"class.std::ctype"* %23, i64 0, i32 8
  %26 = load i8, i8* %25, align 8, !tbaa !15
  %27 = icmp eq i8 %26, 0
  br i1 %27, label %31, label %28

28:                                               ; preds = %20
  %29 = getelementptr inbounds %"class.std::ctype", %"class.std::ctype"* %23, i64 0, i32 9, i64 10
  %30 = load i8, i8* %29, align 1, !tbaa !17
  br label %37

31:                                               ; preds = %20
  tail call void @_ZNKSt5ctypeIcE13_M_widen_initEv(%"class.std::ctype"* nonnull align 8 dereferenceable(570) %23)
  %32 = bitcast %"class.std::ctype"* %23 to i8 (%"class.std::ctype"*, i8)***
  %33 = load i8 (%"class.std::ctype"*, i8)**, i8 (%"class.std::ctype"*, i8)*** %32, align 8, !tbaa !9
  %34 = getelementptr inbounds i8 (%"class.std::ctype"*, i8)*, i8 (%"class.std::ctype"*, i8)** %33, i64 6
  %35 = load i8 (%"class.std::ctype"*, i8)*, i8 (%"class.std::ctype"*, i8)** %34, align 8
  %36 = tail call signext i8 %35(%"class.std::ctype"* nonnull align 8 dereferenceable(570) %23, i8 signext 10)
  br label %37

37:                                               ; preds = %28, %31
  %38 = phi i8 [ %30, %28 ], [ %36, %31 ]
  %39 = tail call nonnull align 8 dereferenceable(8) %"class.std::basic_ostream"* @_ZNSo3putEc(%"class.std::basic_ostream"* nonnull align 8 dereferenceable(8) %24, i8 signext %38)
  %40 = tail call nonnull align 8 dereferenceable(8) %"class.std::basic_ostream"* @_ZNSo5flushEv(%"class.std::basic_ostream"* nonnull align 8 dereferenceable(8) %39)
  %41 = load i32, i32* @row, align 4, !tbaa !5
  %42 = add nsw i32 %41, -1
  %43 = trunc i64 %21 to i32
  %44 = icmp eq i32 %42, %43
  %45 = icmp eq i64 %22, 0
  %46 = select i1 %44, i1 true, i1 %45
  br i1 %46, label %64, label %47

47:                                               ; preds = %37
  %48 = add nsw i64 %21, 1
  %49 = add nsw i64 %22, -1
  %50 = getelementptr inbounds [111 x [111 x i32]], [111 x [111 x i32]]* @Mat, i64 0, i64 %48, i64 %49
  %51 = load i32, i32* %50, align 4, !tbaa !5
  %52 = tail call nonnull align 8 dereferenceable(8) %"class.std::basic_ostream"* @_ZNSolsEi(%"class.std::basic_ostream"* nonnull align 8 dereferenceable(8) @_ZSt4cout, i32 %51)
  %53 = bitcast %"class.std::basic_ostream"* %52 to i8**
  %54 = load i8*, i8** %53, align 8, !tbaa !9
  %55 = getelementptr i8, i8* %54, i64 -24
  %56 = bitcast i8* %55 to i64*
  %57 = load i64, i64* %56, align 8
  %58 = bitcast %"class.std::basic_ostream"* %52 to i8*
  %59 = add nsw i64 %57, 240
  %60 = getelementptr inbounds i8, i8* %58, i64 %59
  %61 = bitcast i8* %60 to %"class.std::ctype"**
  %62 = load %"class.std::ctype"*, %"class.std::ctype"** %61, align 8, !tbaa !11
  %63 = icmp eq %"class.std::ctype"* %62, null
  br i1 %63, label %19, label %20

64:                                               ; preds = %37
  ret void
}

declare nonnull align 8 dereferenceable(8) %"class.std::basic_ostream"* @_ZNSolsEi(%"class.std::basic_ostream"* nonnull align 8 dereferenceable(8), i32) local_unnamed_addr #0

; Function Attrs: mustprogress norecurse sspstrong uwtable
define dso_local i32 @main() local_unnamed_addr #4 {
  %1 = tail call nonnull align 8 dereferenceable(16) %"class.std::basic_istream"* @_ZNSirsERi(%"class.std::basic_istream"* nonnull align 8 dereferenceable(16) @_ZSt3cin, i32* nonnull align 4 dereferenceable(4) @row)
  %2 = tail call nonnull align 8 dereferenceable(16) %"class.std::basic_istream"* @_ZNSirsERi(%"class.std::basic_istream"* nonnull align 8 dereferenceable(16) %1, i32* nonnull align 4 dereferenceable(4) @col)
  %3 = load i32, i32* @row, align 4, !tbaa !5
  %4 = icmp sgt i32 %3, 0
  %5 = load i32, i32* @col, align 4, !tbaa !5
  br i1 %4, label %6, label %13

6:                                                ; preds = %0
  %7 = icmp sgt i32 %5, 0
  br i1 %7, label %8, label %35

8:                                                ; preds = %6, %19
  %9 = phi i32 [ %20, %19 ], [ %3, %6 ]
  %10 = phi i32 [ %21, %19 ], [ %5, %6 ]
  %11 = phi i64 [ %22, %19 ], [ 0, %6 ]
  %12 = icmp sgt i32 %10, 0
  br i1 %12, label %25, label %19

13:                                               ; preds = %19, %0
  %14 = phi i32 [ %3, %0 ], [ %20, %19 ]
  %15 = phi i32 [ %5, %0 ], [ %21, %19 ]
  %16 = icmp sgt i32 %15, 0
  br i1 %16, label %43, label %35

17:                                               ; preds = %25
  %18 = load i32, i32* @row, align 4, !tbaa !5
  br label %19

19:                                               ; preds = %17, %8
  %20 = phi i32 [ %18, %17 ], [ %9, %8 ]
  %21 = phi i32 [ %30, %17 ], [ %10, %8 ]
  %22 = add nuw nsw i64 %11, 1
  %23 = sext i32 %20 to i64
  %24 = icmp slt i64 %22, %23
  br i1 %24, label %8, label %13, !llvm.loop !18

25:                                               ; preds = %8, %25
  %26 = phi i64 [ %29, %25 ], [ 0, %8 ]
  %27 = getelementptr inbounds [111 x [111 x i32]], [111 x [111 x i32]]* @Mat, i64 0, i64 %11, i64 %26
  %28 = tail call nonnull align 8 dereferenceable(16) %"class.std::basic_istream"* @_ZNSirsERi(%"class.std::basic_istream"* nonnull align 8 dereferenceable(16) @_ZSt3cin, i32* nonnull align 4 dereferenceable(4) %27)
  %29 = add nuw nsw i64 %26, 1
  %30 = load i32, i32* @col, align 4, !tbaa !5
  %31 = sext i32 %30 to i64
  %32 = icmp slt i64 %29, %31
  br i1 %32, label %25, label %17, !llvm.loop !21

33:                                               ; preds = %43
  %34 = load i32, i32* @row, align 4, !tbaa !5
  br label %35

35:                                               ; preds = %6, %33, %13
  %36 = phi i32 [ %46, %33 ], [ %15, %13 ], [ %5, %6 ]
  %37 = phi i32 [ %34, %33 ], [ %14, %13 ], [ %3, %6 ]
  %38 = icmp sgt i32 %37, 1
  br i1 %38, label %39, label %48

39:                                               ; preds = %35
  %40 = add nsw i32 %36, -1
  tail call void @_Z3Outii(i32 1, i32 %40)
  %41 = load i32, i32* @row, align 4, !tbaa !5
  %42 = icmp sgt i32 %41, 2
  br i1 %42, label %49, label %48, !llvm.loop !22

43:                                               ; preds = %13, %43
  %44 = phi i32 [ %45, %43 ], [ 0, %13 ]
  tail call void @_Z3Outii(i32 0, i32 %44)
  %45 = add nuw nsw i32 %44, 1
  %46 = load i32, i32* @col, align 4, !tbaa !5
  %47 = icmp slt i32 %45, %46
  br i1 %47, label %43, label %33, !llvm.loop !23

48:                                               ; preds = %49, %39, %35
  ret i32 0

49:                                               ; preds = %39, %49
  %50 = phi i32 [ %53, %49 ], [ 2, %39 ]
  %51 = load i32, i32* @col, align 4, !tbaa !5
  %52 = add nsw i32 %51, -1
  tail call void @_Z3Outii(i32 %50, i32 %52)
  %53 = add nuw nsw i32 %50, 1
  %54 = load i32, i32* @row, align 4, !tbaa !5
  %55 = icmp slt i32 %53, %54
  br i1 %55, label %49, label %48, !llvm.loop !22
}

declare nonnull align 8 dereferenceable(16) %"class.std::basic_istream"* @_ZNSirsERi(%"class.std::basic_istream"* nonnull align 8 dereferenceable(16), i32* nonnull align 4 dereferenceable(4)) local_unnamed_addr #0

declare nonnull align 8 dereferenceable(8) %"class.std::basic_ostream"* @_ZNSo3putEc(%"class.std::basic_ostream"* nonnull align 8 dereferenceable(8), i8 signext) local_unnamed_addr #0

declare nonnull align 8 dereferenceable(8) %"class.std::basic_ostream"* @_ZNSo5flushEv(%"class.std::basic_ostream"* nonnull align 8 dereferenceable(8)) local_unnamed_addr #0

; Function Attrs: noreturn
declare void @_ZSt16__throw_bad_castv() local_unnamed_addr #5

declare void @_ZNKSt5ctypeIcE13_M_widen_initEv(%"class.std::ctype"* nonnull align 8 dereferenceable(570)) local_unnamed_addr #0

; Function Attrs: sspstrong uwtable
define internal void @_GLOBAL__sub_I_799.cpp() #6 section ".text.startup" {
  tail call void @_ZNSt8ios_base4InitC1Ev(%"class.std::ios_base::Init"* nonnull align 1 dereferenceable(1) @_ZStL8__ioinit)
  %1 = tail call i32 @__cxa_atexit(void (i8*)* bitcast (void (%"class.std::ios_base::Init"*)* @_ZNSt8ios_base4InitD1Ev to void (i8*)*), i8* getelementptr inbounds (%"class.std::ios_base::Init", %"class.std::ios_base::Init"* @_ZStL8__ioinit, i64 0, i32 0), i8* nonnull @__dso_handle) #8
  ret void
}


!llvm.module.flags = !{!0, !1, !2, !3}
!llvm.ident = !{!4}

!0 = !{i32 1, !"wchar_size", i32 4}
!1 = !{i32 7, !"PIC Level", i32 2}
!2 = !{i32 7, !"PIE Level", i32 2}
!3 = !{i32 7, !"uwtable", i32 1}
!4 = !{!"clang version 13.0.0"}
!5 = !{!6, !6, i64 0}
!6 = !{!"int", !7, i64 0}
!7 = !{!"omnipotent char", !8, i64 0}
!8 = !{!"Simple C++ TBAA"}
!9 = !{!10, !10, i64 0}
!10 = !{!"vtable pointer", !8, i64 0}
!11 = !{!12, !13, i64 240}
!12 = !{!"_ZTSSt9basic_iosIcSt11char_traitsIcEE", !13, i64 216, !7, i64 224, !14, i64 225, !13, i64 232, !13, i64 240, !13, i64 248, !13, i64 256}
!13 = !{!"any pointer", !7, i64 0}
!14 = !{!"bool", !7, i64 0}
!15 = !{!16, !7, i64 56}
!16 = !{!"_ZTSSt5ctypeIcE", !13, i64 16, !14, i64 24, !13, i64 32, !13, i64 40, !13, i64 48, !7, i64 56, !7, i64 57, !7, i64 313, !7, i64 569}
!17 = !{!7, !7, i64 0}
!18 = distinct !{!18, !19, !20}
!19 = !{!"llvm.loop.mustprogress"}
!20 = !{!"llvm.loop.unswitch.partial.disable"}
!21 = distinct !{!21, !19}
!22 = distinct !{!22, !19}
!23 = distinct !{!23, !19}
